; Function Attrs: nounwind uwtable
define ptr @l___private_Lean_Meta_Tactic_Grind_ProveEq_0__Lean_Meta_Grind_mkLambdaWithBodyAndVarType___boxed(ptr noundef %0, ptr noundef %1) local_unnamed_addr #1 {
  %3 = getelementptr i8, ptr %0, i64 8
  %.val.i = load i64, ptr %3, align 8, !tbaa !16
  %.not27.i.not.i = icmp eq i64 %.val.i, 0
  br i1 %.not27.i.not.i, label %l___private_Lean_Meta_Tactic_Grind_ProveEq_0__Lean_Meta_Grind_mkLambdaWithBodyAndVarType.exit, label %.lr.ph.i.i

.lr.ph.i.i:                                       ; preds = %2
  %4 = getelementptr inbounds nuw i8, ptr %0, i64 24
  br label %5

5:                                                ; preds = %16, %.lr.ph.i.i
  %.01529.i.i = phi i64 [ 0, %.lr.ph.i.i ], [ %19, %16 ]
  %.01728.i.i = phi ptr [ %1, %.lr.ph.i.i ], [ %18, %16 ]
  %6 = getelementptr inbounds nuw [0 x ptr], ptr %4, i64 0, i64 %.01529.i.i
  %7 = load ptr, ptr %6, align 8, !tbaa !4
  %8 = ptrtoint ptr %7 to i64
  %9 = and i64 %8, 1
  %.not.i.i.i = icmp eq i64 %9, 0
  br i1 %.not.i.i.i, label %10, label %16

10:                                               ; preds = %5
  %.val.i.i.i.i = load i32, ptr %7, align 4, !tbaa !8
  %11 = icmp sgt i32 %.val.i.i.i.i, 0
  br i1 %11, label %12, label %14, !prof !11

12:                                               ; preds = %10
  %13 = add nuw i32 %.val.i.i.i.i, 1
  store i32 %13, ptr %7, align 4, !tbaa !8
  br label %16

14:                                               ; preds = %10
  %.not.i.i.i.i = icmp eq i32 %.val.i.i.i.i, 0
  br i1 %.not.i.i.i.i, label %16, label %15

15:                                               ; preds = %14
  tail call void @lean_inc_ref_cold(ptr noundef nonnull %7) #4
  br label %16

16:                                               ; preds = %15, %14, %12, %5
  %17 = load ptr, ptr @l_Array_forIn_x27Unsafe_loop___at___private_Lean_Meta_Tactic_Grind_ProveEq_0__Lean_Meta_Grind_mkLambdaWithBodyAndVarType___spec__1___closed__3, align 8, !tbaa !4
  %18 = tail call ptr @l_Lean_Expr_lam___override(ptr noundef %17, ptr noundef %7, ptr noundef %.01728.i.i, i8 noundef zeroext 0) #4
  %19 = add nuw i64 %.01529.i.i, 1
  %exitcond.not.i.i = icmp eq i64 %19, %.val.i
  br i1 %exitcond.not.i.i, label %l___private_Lean_Meta_Tactic_Grind_ProveEq_0__Lean_Meta_Grind_mkLambdaWithBodyAndVarType.exit, label %5

l___private_Lean_Meta_Tactic_Grind_ProveEq_0__Lean_Meta_Grind_mkLambdaWithBodyAndVarType.exit: ; preds = %16, %2
  %.017.lcssa.i.i = phi ptr [ %1, %2 ], [ %18, %16 ]
  %20 = ptrtoint ptr %0 to i64
  %21 = and i64 %20, 1
  %.not = icmp eq i64 %21, 0
  br i1 %.not, label %22, label %lean_dec.exit

22:                                               ; preds = %l___private_Lean_Meta_Tactic_Grind_ProveEq_0__Lean_Meta_Grind_mkLambdaWithBodyAndVarType.exit
  %23 = load i32, ptr %0, align 4, !tbaa !8
  %24 = icmp sgt i32 %23, 1
  br i1 %24, label %25, label %27, !prof !11

25:                                               ; preds = %22
  %26 = add nsw i32 %23, -1
  store i32 %26, ptr %0, align 4, !tbaa !8
  br label %lean_dec.exit

27:                                               ; preds = %22
  %.not.i = icmp eq i32 %23, 0
  br i1 %.not.i, label %lean_dec.exit, label %28

28:                                               ; preds = %27
  tail call void @lean_dec_ref_cold(ptr noundef nonnull %0) #4
  br label %lean_dec.exit

lean_dec.exit:                                    ; preds = %28, %27, %25, %l___private_Lean_Meta_Tactic_Grind_ProveEq_0__Lean_Meta_Grind_mkLambdaWithBodyAndVarType.exit
  ret ptr %.017.lcssa.i.i
}